; ModuleID = '20/710.c'
source_filename = "20/710.c"
target datalayout = "e-m:e-p270:32:32-p271:32:32-p272:64:64-i64:64-f80:128-n8:16:32:64-S128"
target triple = "x86_64-pc-linux-gnu"

@.str = private unnamed_addr constant [5 x i8] c"%s%s\00", align 1

; Function Attrs: noinline nounwind uwtable
define dso_local void @main() #0 {
  %1 = alloca [11 x i8], align 1
  %2 = alloca [4 x i8], align 1
  %3 = alloca i8, align 1
  %4 = alloca [14 x i8], align 1
  %5 = alloca i32, align 4
  %6 = alloca i32, align 4
  %7 = alloca i32, align 4
  %8 = bitcast [14 x i8]* %4 to i8*
  call void @llvm.memset.p0i8.i64(i8* align 1 %8, i8 0, i64 14, i1 false)
  br label %9

9:                                                ; preds = %122, %0
  %10 = getelementptr inbounds [11 x i8], [11 x i8]* %1, i64 0, i64 0
  %11 = getelementptr inbounds [4 x i8], [4 x i8]* %2, i64 0, i64 0
  %12 = call i32 (i8*, ...) @__isoc99_scanf(i8* getelementptr inbounds ([5 x i8], [5 x i8]* @.str, i64 0, i64 0), i8* %10, i8* %11)
  %13 = icmp ne i32 %12, -1
  br i1 %13, label %14, label %123

14:                                               ; preds = %9
  store i32 0, i32* %6, align 4
  %15 = getelementptr inbounds [11 x i8], [11 x i8]* %1, i64 0, i64 0
  %16 = load i8, i8* %15, align 1
  store i8 %16, i8* %3, align 1
  store i32 0, i32* %5, align 4
  br label %17

17:                                               ; preds = %39, %14
  %18 = load i32, i32* %5, align 4
  %19 = sext i32 %18 to i64
  %20 = getelementptr inbounds [11 x i8], [11 x i8]* %1, i64 0, i64 0
  %21 = call i64 @strlen(i8* %20) #5
  %22 = icmp ult i64 %19, %21
  br i1 %22, label %23, label %42

23:                                               ; preds = %17
  %24 = load i32, i32* %5, align 4
  %25 = sext i32 %24 to i64
  %26 = getelementptr inbounds [11 x i8], [11 x i8]* %1, i64 0, i64 %25
  %27 = load i8, i8* %26, align 1
  %28 = sext i8 %27 to i32
  %29 = load i8, i8* %3, align 1
  %30 = sext i8 %29 to i32
  %31 = icmp sgt i32 %28, %30
  br i1 %31, label %32, label %38

32:                                               ; preds = %23
  %33 = load i32, i32* %5, align 4
  %34 = sext i32 %33 to i64
  %35 = getelementptr inbounds [11 x i8], [11 x i8]* %1, i64 0, i64 %34
  %36 = load i8, i8* %35, align 1
  store i8 %36, i8* %3, align 1
  %37 = load i32, i32* %5, align 4
  store i32 %37, i32* %6, align 4
  br label %38

38:                                               ; preds = %32, %23
  br label %39

39:                                               ; preds = %38
  %40 = load i32, i32* %5, align 4
  %41 = add nsw i32 %40, 1
  store i32 %41, i32* %5, align 4
  br label %17

42:                                               ; preds = %17
  %43 = getelementptr inbounds [14 x i8], [14 x i8]* %4, i64 0, i64 0
  %44 = getelementptr inbounds [11 x i8], [11 x i8]* %1, i64 0, i64 0
  %45 = load i32, i32* %6, align 4
  %46 = add nsw i32 %45, 1
  %47 = sext i32 %46 to i64
  %48 = call i8* @strncpy(i8* %43, i8* %44, i64 %47) #6
  store i32 0, i32* %5, align 4
  br label %49

49:                                               ; preds = %63, %42
  %50 = load i32, i32* %5, align 4
  %51 = icmp slt i32 %50, 3
  br i1 %51, label %52, label %66

52:                                               ; preds = %49
  %53 = load i32, i32* %5, align 4
  %54 = sext i32 %53 to i64
  %55 = getelementptr inbounds [4 x i8], [4 x i8]* %2, i64 0, i64 %54
  %56 = load i8, i8* %55, align 1
  %57 = load i32, i32* %6, align 4
  %58 = add nsw i32 %57, 1
  %59 = load i32, i32* %5, align 4
  %60 = add nsw i32 %58, %59
  %61 = sext i32 %60 to i64
  %62 = getelementptr inbounds [14 x i8], [14 x i8]* %4, i64 0, i64 %61
  store i8 %56, i8* %62, align 1
  br label %63

63:                                               ; preds = %52
  %64 = load i32, i32* %5, align 4
  %65 = add nsw i32 %64, 1
  store i32 %65, i32* %5, align 4
  br label %49

66:                                               ; preds = %49
  %67 = load i32, i32* %6, align 4
  %68 = add nsw i32 %67, 1
  store i32 %68, i32* %5, align 4
  br label %69

69:                                               ; preds = %84, %66
  %70 = load i32, i32* %5, align 4
  %71 = sext i32 %70 to i64
  %72 = getelementptr inbounds [11 x i8], [11 x i8]* %1, i64 0, i64 0
  %73 = call i64 @strlen(i8* %72) #5
  %74 = icmp ult i64 %71, %73
  br i1 %74, label %75, label %87

75:                                               ; preds = %69
  %76 = load i32, i32* %5, align 4
  %77 = sext i32 %76 to i64
  %78 = getelementptr inbounds [11 x i8], [11 x i8]* %1, i64 0, i64 %77
  %79 = load i8, i8* %78, align 1
  %80 = load i32, i32* %5, align 4
  %81 = add nsw i32 %80, 3
  %82 = sext i32 %81 to i64
  %83 = getelementptr inbounds [14 x i8], [14 x i8]* %4, i64 0, i64 %82
  store i8 %79, i8* %83, align 1
  br label %84

84:                                               ; preds = %75
  %85 = load i32, i32* %5, align 4
  %86 = add nsw i32 %85, 1
  store i32 %86, i32* %5, align 4
  br label %69

87:                                               ; preds = %69
  %88 = getelementptr inbounds [14 x i8], [14 x i8]* %4, i64 0, i64 0
  %89 = call i32 @puts(i8* %88)
  store i32 0, i32* %7, align 4
  br label %90

90:                                               ; preds = %97, %87
  %91 = load i32, i32* %7, align 4
  %92 = icmp slt i32 %91, 11
  br i1 %92, label %93, label %100

93:                                               ; preds = %90
  %94 = load i32, i32* %7, align 4
  %95 = sext i32 %94 to i64
  %96 = getelementptr inbounds [11 x i8], [11 x i8]* %1, i64 0, i64 %95
  store i8 0, i8* %96, align 1
  br label %97

97:                                               ; preds = %93
  %98 = load i32, i32* %7, align 4
  %99 = add nsw i32 %98, 1
  store i32 %99, i32* %7, align 4
  br label %90

100:                                              ; preds = %90
  store i32 0, i32* %7, align 4
  br label %101

101:                                              ; preds = %108, %100
  %102 = load i32, i32* %7, align 4
  %103 = icmp slt i32 %102, 4
  br i1 %103, label %104, label %111

104:                                              ; preds = %101
  %105 = load i32, i32* %7, align 4
  %106 = sext i32 %105 to i64
  %107 = getelementptr inbounds [4 x i8], [4 x i8]* %2, i64 0, i64 %106
  store i8 0, i8* %107, align 1
  br label %108

108:                                              ; preds = %104
  %109 = load i32, i32* %7, align 4
  %110 = add nsw i32 %109, 1
  store i32 %110, i32* %7, align 4
  br label %101

111:                                              ; preds = %101
  store i32 0, i32* %7, align 4
  br label %112

112:                                              ; preds = %119, %111
  %113 = load i32, i32* %7, align 4
  %114 = icmp slt i32 %113, 14
  br i1 %114, label %115, label %122

115:                                              ; preds = %112
  %116 = load i32, i32* %7, align 4
  %117 = sext i32 %116 to i64
  %118 = getelementptr inbounds [14 x i8], [14 x i8]* %4, i64 0, i64 %117
  store i8 0, i8* %118, align 1
  br label %119

119:                                              ; preds = %115
  %120 = load i32, i32* %7, align 4
  %121 = add nsw i32 %120, 1
  store i32 %121, i32* %7, align 4
  br label %112

122:                                              ; preds = %112
  br label %9

123:                                              ; preds = %9
  ret void
}

; Function Attrs: argmemonly nounwind willreturn
declare void @llvm.memset.p0i8.i64(i8* nocapture writeonly, i8, i64, i1 immarg) #1

declare dso_local i32 @__isoc99_scanf(i8*, ...) #2

; Function Attrs: nounwind readonly
declare dso_local i64 @strlen(i8*) #3

; Function Attrs: nounwind
declare dso_local i8* @strncpy(i8*, i8*, i64) #4

declare dso_local i32 @puts(i8*) #2


!llvm.module.flags = !{!0}
!llvm.ident = !{!1}

!0 = !{i32 1, !"wchar_size", i32 4}
!1 = !{!"clang version 10.0.0-4ubuntu1 "}
